target datalayout = "e-m:e-p270:32:32-p271:32:32-p272:64:64-i64:64-i128:128-f80:128-n8:16:32:64-S128"
target triple = "x86_64-pc-linux-gnu"

; Function Attrs: mustprogress uwtable
define noundef zeroext i1 @_ZNK32pxrInternal_v0_24__pxrReserved__14HdReprSelector13AnyActiveReprEv(ptr noundef nonnull align 8 dereferenceable(24) %0) #0 align 2 {
  %2 = alloca i1, align 1
  %3 = alloca ptr, align 8
  %4 = alloca i64, align 8
  store ptr %0, ptr %3, align 8
  %5 = load ptr, ptr %3, align 8
  store i64 0, ptr %4, align 8
  br label %6

6:                                                ; preds = %14, %1
  %7 = load i64, ptr %4, align 8
  %8 = icmp ult i64 %7, 3
  br i1 %8, label %9, label %17

9:                                                ; preds = %6
  %10 = load i64, ptr %4, align 8
  %11 = call noundef zeroext i1 @_ZNK32pxrInternal_v0_24__pxrReserved__14HdReprSelector12IsActiveReprEm(ptr noundef nonnull align 8 dereferenceable(24) %5, i64 noundef %10)
  br i1 %11, label %12, label %13

12:                                               ; preds = %9
  store i1 true, ptr %2, align 1
  br label %18

13:                                               ; preds = %9
  br label %14

14:                                               ; preds = %13
  %15 = load i64, ptr %4, align 8
  %16 = add i64 %15, 1
  store i64 %16, ptr %4, align 8
  br label %6, !llvm.loop !4

17:                                               ; preds = %6
  store i1 false, ptr %2, align 1
  br label %18

18:                                               ; preds = %17, %12
  %19 = load i1, ptr %2, align 1
  ret i1 %19
}