; Function Attrs: mustprogress uwtable
define noundef zeroext i1 @_ZNK32pxrInternal_v0_24__pxrReserved__14HdReprSelector13AnyActiveReprEv(ptr nocapture noundef nonnull readonly align 8 dereferenceable(24) %0) local_unnamed_addr #1 align 2 {
  br label %2

2:                                                ; preds = %2, %1
  %.05 = phi i64 [ 0, %1 ], [ %4, %2 ]
  %3 = tail call noundef zeroext i1 @_ZNK32pxrInternal_v0_24__pxrReserved__14HdReprSelector12IsActiveReprEm(ptr noundef nonnull align 8 dereferenceable(24) %0, i64 noundef %.05)
  %4 = add nuw nsw i64 %.05, 1
  %exitcond.not = icmp eq i64 %4, 3
  %or.cond = select i1 %3, i1 true, i1 %exitcond.not
  br i1 %or.cond, label %5, label %2, !llvm.loop !4

5:                                                ; preds = %2
  ret i1 %3
}